target datalayout = "e-m:e-p270:32:32-p271:32:32-p272:64:64-i64:64-i128:128-f80:128-n8:16:32:64-S128"
target triple = "x86_64-pc-linux-gnu"

%struct.pmix_class_t = type { ptr, ptr, ptr, ptr, i32, i32, ptr, ptr, i64 }
%struct.pmix_lock_t = type { i32, %struct.pmix_mutex_t, %union.pthread_cond_t, i8 }
%struct.pmix_mutex_t = type { %struct.pmix_object_t, %union.pthread_mutex_t }
%struct.pmix_object_t = type { %union.pthread_mutex_t, ptr, i32, %struct.pmix_tma }
%struct.pmix_tma = type { ptr, ptr, ptr, ptr, ptr, ptr, ptr, ptr }
%union.pthread_mutex_t = type { %struct.__pthread_mutex_s }
%struct.__pthread_mutex_s = type { i32, i32, i32, i32, i32, i16, i16, %struct.__pthread_internal_list }
%struct.__pthread_internal_list = type { ptr, ptr }
%union.pthread_cond_t = type { %struct.__pthread_cond_s }
%struct.__pthread_cond_s = type { %union.__atomic_wide_counter, %union.__atomic_wide_counter, [2 x i32], [2 x i32], i32, i32, [2 x i32] }
%union.__atomic_wide_counter = type { i64 }
%struct.timeval = type { i64, i64 }
%struct.pmix_list_t = type { %struct.pmix_object_t, %struct.pmix_list_item_t, i64 }
%struct.pmix_list_item_t = type { %struct.pmix_object_t, ptr, ptr, i32 }
%struct.pmix_query_caddy_t = type { %struct.pmix_object_t, %struct.event, %struct.pmix_lock_t, i8, i32, ptr, i64, ptr, i64, ptr, ptr, i64, i64, %struct.pmix_list_t, i64, i64, %struct.pmix_byte_object, ptr, ptr, ptr, ptr, ptr, ptr }
%struct.event = type { %struct.event_callback, %union.anon.0, i32, ptr, %union.anon.2, i16, i16, %struct.timeval }
%struct.event_callback = type { %struct.anon, i16, i8, i8, %union.anon, ptr }
%struct.anon = type { ptr, ptr }
%union.anon = type { ptr }
%union.anon.0 = type { %struct.anon.1 }
%struct.anon.1 = type { ptr, ptr }
%union.anon.2 = type { %struct.anon.3 }
%struct.anon.3 = type { %struct.anon.4, %struct.timeval }
%struct.anon.4 = type { ptr, ptr }
%struct.pmix_byte_object = type { ptr, i64 }

@pmix_class_init_epoch = external global i32, align 4
@pmix_query_caddy_t_class = external global %struct.pmix_class_t, align 8

; Function Attrs: inlinehint nounwind uwtable
define internal void @pmix_obj_run_destructors(ptr noundef %0) #3 {
  %2 = alloca ptr, align 8
  %3 = alloca ptr, align 8
  store ptr %0, ptr %2, align 8, !tbaa !50
  call void @llvm.lifetime.start.p0(i64 8, ptr %3) #10
  %4 = load ptr, ptr %2, align 8, !tbaa !50
  %5 = getelementptr inbounds nuw %struct.pmix_object_t, ptr %4, i32 0, i32 1
  %6 = load ptr, ptr %5, align 8, !tbaa !18
  %7 = getelementptr inbounds nuw %struct.pmix_class_t, ptr %6, i32 0, i32 7
  %8 = load ptr, ptr %7, align 8, !tbaa !126
  store ptr %8, ptr %3, align 8, !tbaa !63
  br label %9

9:                                                ; preds = %13, %1
  %10 = load ptr, ptr %3, align 8, !tbaa !63
  %11 = load ptr, ptr %10, align 8, !tbaa !63
  %12 = icmp ne ptr null, %11
  br i1 %12, label %13, label %19

13:                                               ; preds = %9
  %14 = load ptr, ptr %3, align 8, !tbaa !63
  %15 = load ptr, ptr %14, align 8, !tbaa !63
  %16 = load ptr, ptr %2, align 8, !tbaa !50
  call void %15(ptr noundef %16)
  %17 = load ptr, ptr %3, align 8, !tbaa !63
  %18 = getelementptr inbounds nuw ptr, ptr %17, i32 1
  store ptr %18, ptr %3, align 8, !tbaa !63
  br label %9, !llvm.loop !127

19:                                               ; preds = %9
  call void @llvm.lifetime.end.p0(i64 8, ptr %3) #10
  ret void
}

; Function Attrs: inlinehint nounwind uwtable
define internal void @pmix_mutex_unlock(ptr noundef %0) #3 {
  %2 = alloca ptr, align 8
  store ptr %0, ptr %2, align 8, !tbaa !124
  %3 = load ptr, ptr %2, align 8, !tbaa !124
  %4 = getelementptr inbounds nuw %struct.pmix_mutex_t, ptr %3, i32 0, i32 1
  %5 = call i32 @pthread_mutex_unlock(ptr noundef %4) #10
  ret void
}

; Function Attrs: inlinehint nounwind uwtable
define internal void @pmix_atomic_rmb() #3 {
  fence acquire
  ret void
}

; Function Attrs: inlinehint nounwind uwtable
define internal void @pmix_mutex_lock(ptr noundef %0) #3 {
  %2 = alloca ptr, align 8
  store ptr %0, ptr %2, align 8, !tbaa !124
  %3 = load ptr, ptr %2, align 8, !tbaa !124
  %4 = getelementptr inbounds nuw %struct.pmix_mutex_t, ptr %3, i32 0, i32 1
  %5 = call i32 @pthread_mutex_lock(ptr noundef %4) #10
  ret void
}

; Function Attrs: inlinehint nounwind uwtable
define internal void @pmix_obj_run_constructors(ptr noundef %0) #3 {
  %2 = alloca ptr, align 8
  %3 = alloca ptr, align 8
  store ptr %0, ptr %2, align 8, !tbaa !50
  call void @llvm.lifetime.start.p0(i64 8, ptr %3) #10
  %4 = load ptr, ptr %2, align 8, !tbaa !50
  %5 = getelementptr inbounds nuw %struct.pmix_object_t, ptr %4, i32 0, i32 1
  %6 = load ptr, ptr %5, align 8, !tbaa !18
  %7 = getelementptr inbounds nuw %struct.pmix_class_t, ptr %6, i32 0, i32 6
  %8 = load ptr, ptr %7, align 8, !tbaa !64
  store ptr %8, ptr %3, align 8, !tbaa !63
  br label %9

9:                                                ; preds = %13, %1
  %10 = load ptr, ptr %3, align 8, !tbaa !63
  %11 = load ptr, ptr %10, align 8, !tbaa !63
  %12 = icmp ne ptr null, %11
  br i1 %12, label %13, label %19

13:                                               ; preds = %9
  %14 = load ptr, ptr %3, align 8, !tbaa !63
  %15 = load ptr, ptr %14, align 8, !tbaa !63
  %16 = load ptr, ptr %2, align 8, !tbaa !50
  call void %15(ptr noundef %16)
  %17 = load ptr, ptr %3, align 8, !tbaa !63
  %18 = getelementptr inbounds nuw ptr, ptr %17, i32 1
  store ptr %18, ptr %3, align 8, !tbaa !63
  br label %9, !llvm.loop !65

19:                                               ; preds = %9
  call void @llvm.lifetime.end.p0(i64 8, ptr %3) #10
  ret void
}

; Function Attrs: inlinehint nounwind uwtable
define internal void @pmix_obj_construct_tma(ptr noundef %0, ptr noundef %1) #3 {
  %3 = alloca ptr, align 8
  %4 = alloca ptr, align 8
  store ptr %0, ptr %3, align 8, !tbaa !50
  store ptr %1, ptr %4, align 8, !tbaa !52
  %5 = load ptr, ptr %4, align 8, !tbaa !52
  %6 = icmp eq ptr null, %5
  br i1 %6, label %7, label %32

7:                                                ; preds = %2
  %8 = load ptr, ptr %3, align 8, !tbaa !50
  %9 = getelementptr inbounds nuw %struct.pmix_object_t, ptr %8, i32 0, i32 3
  %10 = getelementptr inbounds nuw %struct.pmix_tma, ptr %9, i32 0, i32 0
  store ptr null, ptr %10, align 8, !tbaa !54
  %11 = load ptr, ptr %3, align 8, !tbaa !50
  %12 = getelementptr inbounds nuw %struct.pmix_object_t, ptr %11, i32 0, i32 3
  %13 = getelementptr inbounds nuw %struct.pmix_tma, ptr %12, i32 0, i32 1
  store ptr null, ptr %13, align 8, !tbaa !55
  %14 = load ptr, ptr %3, align 8, !tbaa !50
  %15 = getelementptr inbounds nuw %struct.pmix_object_t, ptr %14, i32 0, i32 3
  %16 = getelementptr inbounds nuw %struct.pmix_tma, ptr %15, i32 0, i32 2
  store ptr null, ptr %16, align 8, !tbaa !56
  %17 = load ptr, ptr %3, align 8, !tbaa !50
  %18 = getelementptr inbounds nuw %struct.pmix_object_t, ptr %17, i32 0, i32 3
  %19 = getelementptr inbounds nuw %struct.pmix_tma, ptr %18, i32 0, i32 3
  store ptr null, ptr %19, align 8, !tbaa !57
  %20 = load ptr, ptr %3, align 8, !tbaa !50
  %21 = getelementptr inbounds nuw %struct.pmix_object_t, ptr %20, i32 0, i32 3
  %22 = getelementptr inbounds nuw %struct.pmix_tma, ptr %21, i32 0, i32 4
  store ptr null, ptr %22, align 8, !tbaa !58
  %23 = load ptr, ptr %3, align 8, !tbaa !50
  %24 = getelementptr inbounds nuw %struct.pmix_object_t, ptr %23, i32 0, i32 3
  %25 = getelementptr inbounds nuw %struct.pmix_tma, ptr %24, i32 0, i32 5
  store ptr null, ptr %25, align 8, !tbaa !59
  %26 = load ptr, ptr %3, align 8, !tbaa !50
  %27 = getelementptr inbounds nuw %struct.pmix_object_t, ptr %26, i32 0, i32 3
  %28 = getelementptr inbounds nuw %struct.pmix_tma, ptr %27, i32 0, i32 6
  store ptr null, ptr %28, align 8, !tbaa !60
  %29 = load ptr, ptr %3, align 8, !tbaa !50
  %30 = getelementptr inbounds nuw %struct.pmix_object_t, ptr %29, i32 0, i32 3
  %31 = getelementptr inbounds nuw %struct.pmix_tma, ptr %30, i32 0, i32 7
  store ptr null, ptr %31, align 8, !tbaa !61
  br label %36

32:                                               ; preds = %2
  %33 = load ptr, ptr %3, align 8, !tbaa !50
  %34 = getelementptr inbounds nuw %struct.pmix_object_t, ptr %33, i32 0, i32 3
  %35 = load ptr, ptr %4, align 8, !tbaa !52
  call void @llvm.memcpy.p0.p0.i64(ptr align 8 %34, ptr align 8 %35, i64 64, i1 false), !tbaa.struct !62
  br label %36

36:                                               ; preds = %32, %7
  ret void
}

; Function Attrs: nounwind uwtable
define i32 @PMIx_Validate_credential(ptr noundef %0, ptr noundef %1, i64 noundef %2, ptr noundef %3, ptr noundef %4) #0 {
  %6 = alloca ptr, align 8
  %7 = alloca ptr, align 8
  %8 = alloca i64, align 8
  %9 = alloca ptr, align 8
  %10 = alloca ptr, align 8
  %11 = alloca %struct.pmix_query_caddy_t, align 8
  %12 = alloca i32, align 4
  store ptr %0, ptr %6, align 8, !tbaa !10
  store ptr %1, ptr %7, align 8, !tbaa !3
  store i64 %2, ptr %8, align 8, !tbaa !8
  store ptr %3, ptr %9, align 8, !tbaa !135
  store ptr %4, ptr %10, align 8, !tbaa !137
  call void @llvm.lifetime.start.p0(i64 896, ptr %11) #10
  call void @llvm.lifetime.start.p0(i64 4, ptr %12) #10
  br label %13

13:                                               ; preds = %5
  br label %14

14:                                               ; preds = %13
  br label %15

15:                                               ; preds = %14
  %16 = load i32, ptr @pmix_class_init_epoch, align 4, !tbaa !12
  %17 = load i32, ptr getelementptr inbounds nuw (%struct.pmix_class_t, ptr @pmix_query_caddy_t_class, i32 0, i32 4), align 8, !tbaa !14
  %18 = icmp ne i32 %16, %17
  br i1 %18, label %19, label %20

19:                                               ; preds = %15
  call void @pmix_class_initialize(ptr noundef @pmix_query_caddy_t_class)
  br label %20

20:                                               ; preds = %19, %15
  %21 = getelementptr inbounds nuw %struct.pmix_object_t, ptr %11, i32 0, i32 1
  store ptr @pmix_query_caddy_t_class, ptr %21, align 8, !tbaa !18
  %22 = getelementptr inbounds nuw %struct.pmix_object_t, ptr %11, i32 0, i32 2
  store i32 1, ptr %22, align 8, !tbaa !21
  call void @pmix_obj_construct_tma(ptr noundef %11, ptr noundef null)
  call void @pmix_obj_run_constructors(ptr noundef %11)
  br label %23

23:                                               ; preds = %20
  br label %24

24:                                               ; preds = %23
  br label %25

25:                                               ; preds = %24
  br label %26

26:                                               ; preds = %25
  br label %27

27:                                               ; preds = %26
  br label %28

28:                                               ; preds = %27
  %29 = load ptr, ptr %6, align 8, !tbaa !10
  %30 = load ptr, ptr %7, align 8, !tbaa !3
  %31 = load i64, ptr %8, align 8, !tbaa !8
  %32 = call i32 @PMIx_Validate_credential_nb(ptr noundef %29, ptr noundef %30, i64 noundef %31, ptr noundef @myvalcb, ptr noundef %11)
  store i32 %32, ptr %12, align 4, !tbaa !12
  %33 = load i32, ptr %12, align 4, !tbaa !12
  %34 = icmp eq i32 0, %33
  br i1 %34, label %35, label %71

35:                                               ; preds = %28
  br label %36

36:                                               ; preds = %35
  %37 = getelementptr inbounds nuw %struct.pmix_query_caddy_t, ptr %11, i32 0, i32 2
  %38 = getelementptr inbounds nuw %struct.pmix_lock_t, ptr %37, i32 0, i32 1
  call void @pmix_mutex_lock(ptr noundef %38)
  br label %39

39:                                               ; preds = %44, %36
  %40 = getelementptr inbounds nuw %struct.pmix_query_caddy_t, ptr %11, i32 0, i32 2
  %41 = getelementptr inbounds nuw %struct.pmix_lock_t, ptr %40, i32 0, i32 3
  %42 = load volatile i8, ptr %41, align 8, !tbaa !22, !range !41, !noundef !42
  %43 = trunc i8 %42 to i1
  br i1 %43, label %44, label %51

44:                                               ; preds = %39
  %45 = getelementptr inbounds nuw %struct.pmix_query_caddy_t, ptr %11, i32 0, i32 2
  %46 = getelementptr inbounds nuw %struct.pmix_lock_t, ptr %45, i32 0, i32 2
  %47 = getelementptr inbounds nuw %struct.pmix_query_caddy_t, ptr %11, i32 0, i32 2
  %48 = getelementptr inbounds nuw %struct.pmix_lock_t, ptr %47, i32 0, i32 1
  %49 = getelementptr inbounds nuw %struct.pmix_mutex_t, ptr %48, i32 0, i32 1
  %50 = call i32 @pthread_cond_wait(ptr noundef %46, ptr noundef %49)
  br label %39, !llvm.loop !138

51:                                               ; preds = %39
  call void @pmix_atomic_rmb()
  %52 = getelementptr inbounds nuw %struct.pmix_query_caddy_t, ptr %11, i32 0, i32 2
  %53 = getelementptr inbounds nuw %struct.pmix_lock_t, ptr %52, i32 0, i32 1
  call void @pmix_mutex_unlock(ptr noundef %53)
  br label %54

54:                                               ; preds = %51
  br label %55

55:                                               ; preds = %54
  %56 = getelementptr inbounds nuw %struct.pmix_query_caddy_t, ptr %11, i32 0, i32 4
  %57 = load i32, ptr %56, align 4, !tbaa !45
  store i32 %57, ptr %12, align 4, !tbaa !12
  %58 = getelementptr inbounds nuw %struct.pmix_query_caddy_t, ptr %11, i32 0, i32 9
  %59 = load ptr, ptr %58, align 8, !tbaa !139
  %60 = icmp ne ptr null, %59
  br i1 %60, label %61, label %70

61:                                               ; preds = %55
  %62 = getelementptr inbounds nuw %struct.pmix_query_caddy_t, ptr %11, i32 0, i32 9
  %63 = load ptr, ptr %62, align 8, !tbaa !139
  %64 = load ptr, ptr %9, align 8, !tbaa !135
  store ptr %63, ptr %64, align 8, !tbaa !3
  %65 = getelementptr inbounds nuw %struct.pmix_query_caddy_t, ptr %11, i32 0, i32 11
  %66 = load i64, ptr %65, align 8, !tbaa !140
  %67 = load ptr, ptr %10, align 8, !tbaa !137
  store i64 %66, ptr %67, align 8, !tbaa !8
  %68 = getelementptr inbounds nuw %struct.pmix_query_caddy_t, ptr %11, i32 0, i32 9
  store ptr null, ptr %68, align 8, !tbaa !139
  %69 = getelementptr inbounds nuw %struct.pmix_query_caddy_t, ptr %11, i32 0, i32 11
  store i64 0, ptr %69, align 8, !tbaa !140
  br label %70

70:                                               ; preds = %61, %55
  br label %71

71:                                               ; preds = %70, %28
  br label %72

72:                                               ; preds = %71
  call void @pmix_obj_run_destructors(ptr noundef %11)
  br label %73

73:                                               ; preds = %72
  br label %74

74:                                               ; preds = %73
  %75 = load i32, ptr %12, align 4, !tbaa !12
  call void @llvm.lifetime.end.p0(i64 4, ptr %12) #10
  call void @llvm.lifetime.end.p0(i64 896, ptr %11) #10
  ret i32 %75
}