; Function Attrs: nounwind uwtable
define i32 @PMIx_Validate_credential(ptr noundef %0, ptr noundef %1, i64 noundef %2, ptr noundef writeonly captures(none) %3, ptr noundef writeonly captures(none) %4) local_unnamed_addr #0 {
  %6 = alloca %struct.pmix_query_caddy_t, align 8
  call void @llvm.lifetime.start.p0(i64 896, ptr nonnull %6) #12
  %7 = load i32, ptr @pmix_class_init_epoch, align 4, !tbaa !3
  %8 = load i32, ptr getelementptr inbounds nuw (i8, ptr @pmix_query_caddy_t_class, i64 32), align 8, !tbaa !7
  %.not = icmp eq i32 %7, %8
  br i1 %.not, label %10, label %9

9:                                                ; preds = %5
  tail call void @pmix_class_initialize(ptr noundef nonnull @pmix_query_caddy_t_class) #12
  br label %10

10:                                               ; preds = %9, %5
  %11 = getelementptr inbounds nuw i8, ptr %6, i64 40
  store ptr @pmix_query_caddy_t_class, ptr %11, align 8, !tbaa !13
  %12 = getelementptr inbounds nuw i8, ptr %6, i64 48
  store i32 1, ptr %12, align 8, !tbaa !16
  %13 = getelementptr inbounds nuw i8, ptr %6, i64 56
  call void @llvm.memset.p0.i64(ptr noundef nonnull align 8 dereferenceable(64) %13, i8 0, i64 64, i1 false)
  %14 = load ptr, ptr getelementptr inbounds nuw (i8, ptr @pmix_query_caddy_t_class, i64 40), align 8, !tbaa !17
  %15 = load ptr, ptr %14, align 8, !tbaa !18
  %.not6.i = icmp eq ptr %15, null
  br i1 %.not6.i, label %pmix_obj_run_constructors.exit, label %.lr.ph.i

.lr.ph.i:                                         ; preds = %10, %.lr.ph.i
  %16 = phi ptr [ %18, %.lr.ph.i ], [ %15, %10 ]
  %.07.i = phi ptr [ %17, %.lr.ph.i ], [ %14, %10 ]
  call void %16(ptr noundef nonnull %6) #12
  %17 = getelementptr inbounds nuw i8, ptr %.07.i, i64 8
  %18 = load ptr, ptr %17, align 8, !tbaa !18
  %.not.i = icmp eq ptr %18, null
  br i1 %.not.i, label %pmix_obj_run_constructors.exit, label %.lr.ph.i, !llvm.loop !19

pmix_obj_run_constructors.exit:                   ; preds = %.lr.ph.i, %10
  %19 = call i32 @PMIx_Validate_credential_nb(ptr noundef %0, ptr noundef %1, i64 noundef %2, ptr noundef nonnull @myvalcb, ptr noundef nonnull %6)
  %20 = icmp eq i32 %19, 0
  br i1 %20, label %21, label %40

21:                                               ; preds = %pmix_obj_run_constructors.exit
  %22 = getelementptr inbounds nuw i8, ptr %6, i64 376
  %23 = call i32 @pthread_mutex_lock(ptr noundef nonnull %22) #12
  %24 = getelementptr inbounds nuw i8, ptr %6, i64 464
  %25 = load volatile i8, ptr %24, align 8, !tbaa !21, !range !41, !noundef !42
  %26 = trunc nuw i8 %25 to i1
  br i1 %26, label %.lr.ph, label %._crit_edge

.lr.ph:                                           ; preds = %21
  %27 = getelementptr inbounds nuw i8, ptr %6, i64 416
  br label %28

28:                                               ; preds = %.lr.ph, %28
  %29 = call i32 @pthread_cond_wait(ptr noundef nonnull %27, ptr noundef nonnull %22) #12
  %30 = load volatile i8, ptr %24, align 8, !tbaa !21, !range !41, !noundef !42
  %31 = trunc nuw i8 %30 to i1
  br i1 %31, label %28, label %._crit_edge, !llvm.loop !116

._crit_edge:                                      ; preds = %28, %21
  fence acquire
  %32 = call i32 @pthread_mutex_unlock(ptr noundef nonnull %22) #12
  %33 = getelementptr inbounds nuw i8, ptr %6, i64 476
  %34 = load i32, ptr %33, align 4, !tbaa !44
  %35 = getelementptr inbounds nuw i8, ptr %6, i64 512
  %36 = load ptr, ptr %35, align 8, !tbaa !117
  %.not8 = icmp eq ptr %36, null
  br i1 %.not8, label %40, label %37

37:                                               ; preds = %._crit_edge
  store ptr %36, ptr %3, align 8, !tbaa !53
  %38 = getelementptr inbounds nuw i8, ptr %6, i64 528
  %39 = load i64, ptr %38, align 8, !tbaa !118
  store i64 %39, ptr %4, align 8, !tbaa !51
  store ptr null, ptr %35, align 8, !tbaa !117
  store i64 0, ptr %38, align 8, !tbaa !118
  br label %40

40:                                               ; preds = %pmix_obj_run_constructors.exit, %37, %._crit_edge
  %.0 = phi i32 [ %34, %37 ], [ %34, %._crit_edge ], [ %19, %pmix_obj_run_constructors.exit ]
  %41 = load ptr, ptr %11, align 8, !tbaa !13
  %42 = getelementptr inbounds nuw i8, ptr %41, i64 48
  %43 = load ptr, ptr %42, align 8, !tbaa !49
  %44 = load ptr, ptr %43, align 8, !tbaa !18
  %.not6.i9 = icmp eq ptr %44, null
  br i1 %.not6.i9, label %pmix_obj_run_destructors.exit, label %.lr.ph.i10

.lr.ph.i10:                                       ; preds = %40, %.lr.ph.i10
  %45 = phi ptr [ %47, %.lr.ph.i10 ], [ %44, %40 ]
  %.07.i11 = phi ptr [ %46, %.lr.ph.i10 ], [ %43, %40 ]
  call void %45(ptr noundef nonnull %6) #12
  %46 = getelementptr inbounds nuw i8, ptr %.07.i11, i64 8
  %47 = load ptr, ptr %46, align 8, !tbaa !18
  %.not.i12 = icmp eq ptr %47, null
  br i1 %.not.i12, label %pmix_obj_run_destructors.exit, label %.lr.ph.i10, !llvm.loop !50

pmix_obj_run_destructors.exit:                    ; preds = %.lr.ph.i10, %40
  call void @llvm.lifetime.end.p0(i64 896, ptr nonnull %6) #12
  ret i32 %.0
}